; Function Attrs: nofree norecurse nosync nounwind memory(read, inaccessiblemem: none) uwtable
define dso_local zeroext i1 @str_has_no_uppercase(ptr nocapture noundef readonly %0) local_unnamed_addr #2 {
  br label %2

2:                                                ; preds = %2, %1
  %.02 = phi ptr [ %0, %1 ], [ %4, %2 ]
  %3 = load i8, ptr %.02, align 1
  %.not = icmp eq i8 %3, 0
  %4 = getelementptr inbounds i8, ptr %.02, i64 1
  %5 = add i8 %3, -65
  %6 = icmp ult i8 %5, 26
  %or.cond = or i1 %.not, %6
  br i1 %or.cond, label %7, label %2, !llvm.loop !9

7:                                                ; preds = %2
  ret i1 %.not
}